target datalayout = "e-m:e-p270:32:32-p271:32:32-p272:64:64-i64:64-i128:128-f80:128-n8:16:32:64-S128"
target triple = "x86_64-pc-linux-gnu"

; Function Attrs: nounwind uwtable
define internal void @premultiply16(ptr noundef %0, ptr noundef %1, ptr noundef %2, i64 noundef %3, i64 noundef %4, i64 noundef %5, i32 noundef %6, i32 noundef %7, i32 noundef %8, i32 noundef %9, i32 noundef %10) #1 {
  %12 = alloca ptr, align 8
  %13 = alloca ptr, align 8
  %14 = alloca ptr, align 8
  %15 = alloca i64, align 8
  %16 = alloca i64, align 8
  %17 = alloca i64, align 8
  %18 = alloca i32, align 4
  %19 = alloca i32, align 4
  %20 = alloca i32, align 4
  %21 = alloca i32, align 4
  %22 = alloca i32, align 4
  %23 = alloca ptr, align 8
  %24 = alloca ptr, align 8
  %25 = alloca ptr, align 8
  %26 = alloca i32, align 4
  %27 = alloca i32, align 4
  store ptr %0, ptr %12, align 8, !tbaa !91
  store ptr %1, ptr %13, align 8, !tbaa !91
  store ptr %2, ptr %14, align 8, !tbaa !91
  store i64 %3, ptr %15, align 8, !tbaa !50
  store i64 %4, ptr %16, align 8, !tbaa !50
  store i64 %5, ptr %17, align 8, !tbaa !50
  store i32 %6, ptr %18, align 4, !tbaa !37
  store i32 %7, ptr %19, align 4, !tbaa !37
  store i32 %8, ptr %20, align 4, !tbaa !37
  store i32 %9, ptr %21, align 4, !tbaa !37
  store i32 %10, ptr %22, align 4, !tbaa !37
  call void @llvm.lifetime.start.p0(i64 8, ptr %23) #11
  %28 = load ptr, ptr %12, align 8, !tbaa !91
  store ptr %28, ptr %23, align 8, !tbaa !99
  call void @llvm.lifetime.start.p0(i64 8, ptr %24) #11
  %29 = load ptr, ptr %13, align 8, !tbaa !91
  store ptr %29, ptr %24, align 8, !tbaa !99
  call void @llvm.lifetime.start.p0(i64 8, ptr %25) #11
  %30 = load ptr, ptr %14, align 8, !tbaa !91
  store ptr %30, ptr %25, align 8, !tbaa !99
  call void @llvm.lifetime.start.p0(i64 4, ptr %26) #11
  call void @llvm.lifetime.start.p0(i64 4, ptr %27) #11
  store i32 0, ptr %27, align 4, !tbaa !37
  br label %31

31:                                               ; preds = %88, %11
  %32 = load i32, ptr %27, align 4, !tbaa !37
  %33 = load i32, ptr %19, align 4, !tbaa !37
  %34 = icmp slt i32 %32, %33
  br i1 %34, label %35, label %91

35:                                               ; preds = %31
  store i32 0, ptr %26, align 4, !tbaa !37
  br label %36

36:                                               ; preds = %72, %35
  %37 = load i32, ptr %26, align 4, !tbaa !37
  %38 = load i32, ptr %18, align 4, !tbaa !37
  %39 = icmp slt i32 %37, %38
  br i1 %39, label %40, label %75

40:                                               ; preds = %36
  %41 = load ptr, ptr %23, align 8, !tbaa !99
  %42 = load i32, ptr %26, align 4, !tbaa !37
  %43 = sext i32 %42 to i64
  %44 = getelementptr inbounds i16, ptr %41, i64 %43
  %45 = load i16, ptr %44, align 2, !tbaa !101
  %46 = zext i16 %45 to i32
  %47 = load ptr, ptr %24, align 8, !tbaa !99
  %48 = load i32, ptr %26, align 4, !tbaa !37
  %49 = sext i32 %48 to i64
  %50 = getelementptr inbounds i16, ptr %47, i64 %49
  %51 = load i16, ptr %50, align 2, !tbaa !101
  %52 = zext i16 %51 to i32
  %53 = ashr i32 %52, 1
  %54 = and i32 %53, 1
  %55 = load ptr, ptr %24, align 8, !tbaa !99
  %56 = load i32, ptr %26, align 4, !tbaa !37
  %57 = sext i32 %56 to i64
  %58 = getelementptr inbounds i16, ptr %55, i64 %57
  %59 = load i16, ptr %58, align 2, !tbaa !101
  %60 = zext i16 %59 to i32
  %61 = add nsw i32 %54, %60
  %62 = mul nsw i32 %46, %61
  %63 = load i32, ptr %20, align 4, !tbaa !37
  %64 = add nsw i32 %62, %63
  %65 = load i32, ptr %21, align 4, !tbaa !37
  %66 = ashr i32 %64, %65
  %67 = trunc i32 %66 to i16
  %68 = load ptr, ptr %25, align 8, !tbaa !99
  %69 = load i32, ptr %26, align 4, !tbaa !37
  %70 = sext i32 %69 to i64
  %71 = getelementptr inbounds i16, ptr %68, i64 %70
  store i16 %67, ptr %71, align 2, !tbaa !101
  br label %72

72:                                               ; preds = %40
  %73 = load i32, ptr %26, align 4, !tbaa !37
  %74 = add nsw i32 %73, 1
  store i32 %74, ptr %26, align 4, !tbaa !37
  br label %36, !llvm.loop !123

75:                                               ; preds = %36
  %76 = load i64, ptr %17, align 8, !tbaa !50
  %77 = sdiv i64 %76, 2
  %78 = load ptr, ptr %25, align 8, !tbaa !99
  %79 = getelementptr inbounds i16, ptr %78, i64 %77
  store ptr %79, ptr %25, align 8, !tbaa !99
  %80 = load i64, ptr %15, align 8, !tbaa !50
  %81 = sdiv i64 %80, 2
  %82 = load ptr, ptr %23, align 8, !tbaa !99
  %83 = getelementptr inbounds i16, ptr %82, i64 %81
  store ptr %83, ptr %23, align 8, !tbaa !99
  %84 = load i64, ptr %16, align 8, !tbaa !50
  %85 = sdiv i64 %84, 2
  %86 = load ptr, ptr %24, align 8, !tbaa !99
  %87 = getelementptr inbounds i16, ptr %86, i64 %85
  store ptr %87, ptr %24, align 8, !tbaa !99
  br label %88

88:                                               ; preds = %75
  %89 = load i32, ptr %27, align 4, !tbaa !37
  %90 = add nsw i32 %89, 1
  store i32 %90, ptr %27, align 4, !tbaa !37
  br label %31, !llvm.loop !124

91:                                               ; preds = %31
  call void @llvm.lifetime.end.p0(i64 4, ptr %27) #11
  call void @llvm.lifetime.end.p0(i64 4, ptr %26) #11
  call void @llvm.lifetime.end.p0(i64 8, ptr %25) #11
  call void @llvm.lifetime.end.p0(i64 8, ptr %24) #11
  call void @llvm.lifetime.end.p0(i64 8, ptr %23) #11
  ret void
}