; Function Attrs: nofree norecurse nosync nounwind memory(argmem: readwrite) uwtable
define internal void @premultiply16(ptr noundef readonly captures(none) %0, ptr noundef readonly captures(none) %1, ptr noundef writeonly captures(none) %2, i64 noundef %3, i64 noundef %4, i64 noundef %5, i32 noundef %6, i32 noundef %7, i32 noundef %8, i32 noundef %9, i32 %10) #5 {
  %12 = icmp sgt i32 %7, 0
  br i1 %12, label %.preheader.lr.ph, label %._crit_edge33

.preheader.lr.ph:                                 ; preds = %11
  %13 = icmp sgt i32 %6, 0
  %14 = sdiv i64 %5, 2
  %15 = sdiv i64 %3, 2
  %16 = sdiv i64 %4, 2
  br i1 %13, label %.preheader.us.preheader, label %._crit_edge33

.preheader.us.preheader:                          ; preds = %.preheader.lr.ph
  %wide.trip.count = zext nneg i32 %6 to i64
  br label %.preheader.us

.preheader.us:                                    ; preds = %.preheader.us.preheader, %._crit_edge.us
  %.032.us = phi i32 [ %35, %._crit_edge.us ], [ 0, %.preheader.us.preheader ]
  %.02531.us = phi ptr [ %32, %._crit_edge.us ], [ %2, %.preheader.us.preheader ]
  %.02630.us = phi ptr [ %34, %._crit_edge.us ], [ %1, %.preheader.us.preheader ]
  %.02729.us = phi ptr [ %33, %._crit_edge.us ], [ %0, %.preheader.us.preheader ]
  br label %17

17:                                               ; preds = %.preheader.us, %17
  %indvars.iv = phi i64 [ 0, %.preheader.us ], [ %indvars.iv.next, %17 ]
  %18 = getelementptr inbounds nuw i16, ptr %.02729.us, i64 %indvars.iv
  %19 = load i16, ptr %18, align 2, !tbaa !85
  %20 = zext i16 %19 to i32
  %21 = getelementptr inbounds nuw i16, ptr %.02630.us, i64 %indvars.iv
  %22 = load i16, ptr %21, align 2, !tbaa !85
  %23 = zext i16 %22 to i32
  %24 = lshr i32 %23, 1
  %25 = and i32 %24, 1
  %26 = add nuw nsw i32 %25, %23
  %27 = mul nuw nsw i32 %26, %20
  %28 = add nsw i32 %27, %8
  %29 = ashr i32 %28, %9
  %30 = trunc i32 %29 to i16
  %31 = getelementptr inbounds nuw i16, ptr %.02531.us, i64 %indvars.iv
  store i16 %30, ptr %31, align 2, !tbaa !85
  %indvars.iv.next = add nuw nsw i64 %indvars.iv, 1
  %exitcond.not = icmp eq i64 %indvars.iv.next, %wide.trip.count
  br i1 %exitcond.not, label %._crit_edge.us, label %17, !llvm.loop !105

._crit_edge.us:                                   ; preds = %17
  %32 = getelementptr inbounds i16, ptr %.02531.us, i64 %14
  %33 = getelementptr inbounds i16, ptr %.02729.us, i64 %15
  %34 = getelementptr inbounds i16, ptr %.02630.us, i64 %16
  %35 = add nuw nsw i32 %.032.us, 1
  %exitcond36.not = icmp eq i32 %35, %7
  br i1 %exitcond36.not, label %._crit_edge33, label %.preheader.us, !llvm.loop !106

._crit_edge33:                                    ; preds = %._crit_edge.us, %.preheader.lr.ph, %11
  ret void
}